target datalayout = "e-m:e-p270:32:32-p271:32:32-p272:64:64-i64:64-i128:128-f80:128-n8:16:32:64-S128"
target triple = "x86_64-pc-linux-gnu"

%struct.Abc_Ntk_t_ = type { i32, i32, ptr, ptr, ptr, ptr, ptr, ptr, ptr, ptr, ptr, ptr, ptr, [11 x i32], i32, i32, i32, i32, ptr, i32, ptr, ptr, i32, i32, i32, double, i32, %struct.Vec_Int_t_, ptr, ptr, ptr, ptr, ptr, float, i32, ptr, ptr, ptr, ptr, ptr, ptr, ptr, ptr, ptr, ptr, ptr, ptr, ptr, ptr, ptr, ptr, ptr, ptr, ptr, ptr, ptr, ptr }
%struct.Vec_Int_t_ = type { i32, i32, ptr }
%struct.Abc_Obj_t_ = type { ptr, ptr, i32, i32, %struct.Vec_Int_t_, %struct.Vec_Int_t_, %union.anon, %union.anon.0 }
%union.anon = type { ptr }
%union.anon.0 = type { ptr }
%struct.Vec_Ptr_t_ = type { i32, i32, ptr }

@.str.12 = private unnamed_addr constant [44 x i8] c"The root of the miter is not an EXOR gate.\0A\00", align 1
@.str.13 = private unnamed_addr constant [8 x i8] c"addOut1\00", align 1
@.str.14 = private unnamed_addr constant [8 x i8] c"addOut2\00", align 1
@.str.15 = private unnamed_addr constant [54 x i8] c"First cone = %6d.  Second cone = %6d.  Common = %6d.\0A\00", align 1
@.str.16 = private unnamed_addr constant [47 x i8] c"Abc_NtkDemiter: The network check has failed.\0A\00", align 1

; Function Attrs: inlinehint nounwind uwtable
define internal void @Vec_PtrFree(ptr noundef %0) #3 {
  %2 = alloca ptr, align 8
  store ptr %0, ptr %2, align 8, !tbaa !31
  %3 = load ptr, ptr %2, align 8, !tbaa !31
  %4 = getelementptr inbounds nuw %struct.Vec_Ptr_t_, ptr %3, i32 0, i32 2
  %5 = load ptr, ptr %4, align 8, !tbaa !36
  %6 = icmp ne ptr %5, null
  br i1 %6, label %7, label %13

7:                                                ; preds = %1
  %8 = load ptr, ptr %2, align 8, !tbaa !31
  %9 = getelementptr inbounds nuw %struct.Vec_Ptr_t_, ptr %8, i32 0, i32 2
  %10 = load ptr, ptr %9, align 8, !tbaa !36
  call void @free(ptr noundef %10) #9
  %11 = load ptr, ptr %2, align 8, !tbaa !31
  %12 = getelementptr inbounds nuw %struct.Vec_Ptr_t_, ptr %11, i32 0, i32 2
  store ptr null, ptr %12, align 8, !tbaa !36
  br label %14

13:                                               ; preds = %1
  br label %14

14:                                               ; preds = %13, %7
  %15 = load ptr, ptr %2, align 8, !tbaa !31
  %16 = icmp ne ptr %15, null
  br i1 %16, label %17, label %19

17:                                               ; preds = %14
  %18 = load ptr, ptr %2, align 8, !tbaa !31
  call void @free(ptr noundef %18) #9
  store ptr null, ptr %2, align 8, !tbaa !31
  br label %20

19:                                               ; preds = %14
  br label %20

20:                                               ; preds = %19, %17
  ret void
}

; Function Attrs: inlinehint nounwind uwtable
define internal ptr @Vec_PtrEntry(ptr noundef %0, i32 noundef %1) #3 {
  %3 = alloca ptr, align 8
  %4 = alloca i32, align 4
  store ptr %0, ptr %3, align 8, !tbaa !31
  store i32 %1, ptr %4, align 4, !tbaa !8
  %5 = load ptr, ptr %3, align 8, !tbaa !31
  %6 = getelementptr inbounds nuw %struct.Vec_Ptr_t_, ptr %5, i32 0, i32 2
  %7 = load ptr, ptr %6, align 8, !tbaa !36
  %8 = load i32, ptr %4, align 4, !tbaa !8
  %9 = sext i32 %8 to i64
  %10 = getelementptr inbounds ptr, ptr %7, i64 %9
  %11 = load ptr, ptr %10, align 8, !tbaa !37
  ret ptr %11
}

; Function Attrs: inlinehint nounwind uwtable
define internal i32 @Vec_PtrSize(ptr noundef %0) #3 {
  %2 = alloca ptr, align 8
  store ptr %0, ptr %2, align 8, !tbaa !31
  %3 = load ptr, ptr %2, align 8, !tbaa !31
  %4 = getelementptr inbounds nuw %struct.Vec_Ptr_t_, ptr %3, i32 0, i32 1
  %5 = load i32, ptr %4, align 4, !tbaa !34
  ret i32 %5
}

; Function Attrs: inlinehint nounwind uwtable
define internal ptr @Abc_ObjRegular(ptr noundef %0) #3 {
  %2 = alloca ptr, align 8
  store ptr %0, ptr %2, align 8, !tbaa !28
  %3 = load ptr, ptr %2, align 8, !tbaa !28
  %4 = ptrtoint ptr %3 to i64
  %5 = and i64 %4, -2
  %6 = inttoptr i64 %5 to ptr
  ret ptr %6
}

; Function Attrs: inlinehint nounwind uwtable
define internal ptr @Abc_NtkCreatePo(ptr noundef %0) #3 {
  %2 = alloca ptr, align 8
  store ptr %0, ptr %2, align 8, !tbaa !3
  %3 = load ptr, ptr %2, align 8, !tbaa !3
  %4 = call ptr @Abc_NtkCreateObj(ptr noundef %3, i32 noundef 3)
  ret ptr %4
}

; Function Attrs: inlinehint nounwind uwtable
define internal ptr @Abc_ObjNot(ptr noundef %0) #3 {
  %2 = alloca ptr, align 8
  store ptr %0, ptr %2, align 8, !tbaa !28
  %3 = load ptr, ptr %2, align 8, !tbaa !28
  %4 = ptrtoint ptr %3 to i64
  %5 = xor i64 %4, 1
  %6 = inttoptr i64 %5 to ptr
  ret ptr %6
}

; Function Attrs: inlinehint nounwind uwtable
define internal i32 @Abc_ObjFaninC0(ptr noundef %0) #3 {
  %2 = alloca ptr, align 8
  store ptr %0, ptr %2, align 8, !tbaa !28
  %3 = load ptr, ptr %2, align 8, !tbaa !28
  %4 = getelementptr inbounds nuw %struct.Abc_Obj_t_, ptr %3, i32 0, i32 3
  %5 = load i32, ptr %4, align 4
  %6 = lshr i32 %5, 10
  %7 = and i32 %6, 1
  ret i32 %7
}

; Function Attrs: inlinehint nounwind uwtable
define internal ptr @Abc_ObjFanin0(ptr noundef %0) #3 {
  %2 = alloca ptr, align 8
  store ptr %0, ptr %2, align 8, !tbaa !28
  %3 = load ptr, ptr %2, align 8, !tbaa !28
  %4 = getelementptr inbounds nuw %struct.Abc_Obj_t_, ptr %3, i32 0, i32 0
  %5 = load ptr, ptr %4, align 8, !tbaa !48
  %6 = getelementptr inbounds nuw %struct.Abc_Ntk_t_, ptr %5, i32 0, i32 5
  %7 = load ptr, ptr %6, align 8, !tbaa !45
  %8 = getelementptr inbounds nuw %struct.Vec_Ptr_t_, ptr %7, i32 0, i32 2
  %9 = load ptr, ptr %8, align 8, !tbaa !36
  %10 = load ptr, ptr %2, align 8, !tbaa !28
  %11 = getelementptr inbounds nuw %struct.Abc_Obj_t_, ptr %10, i32 0, i32 4
  %12 = getelementptr inbounds nuw %struct.Vec_Int_t_, ptr %11, i32 0, i32 2
  %13 = load ptr, ptr %12, align 8, !tbaa !50
  %14 = getelementptr inbounds i32, ptr %13, i64 0
  %15 = load i32, ptr %14, align 4, !tbaa !8
  %16 = sext i32 %15 to i64
  %17 = getelementptr inbounds ptr, ptr %9, i64 %16
  %18 = load ptr, ptr %17, align 8, !tbaa !37
  ret ptr %18
}

; Function Attrs: inlinehint nounwind uwtable
define internal ptr @Abc_NtkPo(ptr noundef %0, i32 noundef %1) #3 {
  %3 = alloca ptr, align 8
  %4 = alloca i32, align 4
  store ptr %0, ptr %3, align 8, !tbaa !3
  store i32 %1, ptr %4, align 4, !tbaa !8
  %5 = load ptr, ptr %3, align 8, !tbaa !3
  %6 = getelementptr inbounds nuw %struct.Abc_Ntk_t_, ptr %5, i32 0, i32 7
  %7 = load ptr, ptr %6, align 8, !tbaa !47
  %8 = load i32, ptr %4, align 4, !tbaa !8
  %9 = call ptr @Vec_PtrEntry(ptr noundef %7, i32 noundef %8)
  ret ptr %9
}

; Function Attrs: nounwind uwtable
define i32 @Abc_NtkDemiter(ptr noundef %0) #0 {
  %2 = alloca i32, align 4
  %3 = alloca ptr, align 8
  %4 = alloca ptr, align 8
  %5 = alloca ptr, align 8
  %6 = alloca ptr, align 8
  %7 = alloca ptr, align 8
  %8 = alloca ptr, align 8
  %9 = alloca ptr, align 8
  %10 = alloca ptr, align 8
  %11 = alloca i32, align 4
  %12 = alloca i32, align 4
  %13 = alloca i32, align 4
  store ptr %0, ptr %3, align 8, !tbaa !3
  call void @llvm.lifetime.start.p0(i64 8, ptr %4) #9
  call void @llvm.lifetime.start.p0(i64 8, ptr %5) #9
  call void @llvm.lifetime.start.p0(i64 8, ptr %6) #9
  call void @llvm.lifetime.start.p0(i64 8, ptr %7) #9
  call void @llvm.lifetime.start.p0(i64 8, ptr %8) #9
  call void @llvm.lifetime.start.p0(i64 8, ptr %9) #9
  call void @llvm.lifetime.start.p0(i64 8, ptr %10) #9
  call void @llvm.lifetime.start.p0(i64 4, ptr %11) #9
  call void @llvm.lifetime.start.p0(i64 4, ptr %12) #9
  %14 = load ptr, ptr %3, align 8, !tbaa !3
  %15 = call ptr @Abc_NtkPo(ptr noundef %14, i32 noundef 0)
  %16 = call ptr @Abc_ObjFanin0(ptr noundef %15)
  %17 = call i32 @Abc_NodeIsExorType(ptr noundef %16)
  %18 = icmp ne i32 %17, 0
  br i1 %18, label %21, label %19

19:                                               ; preds = %1
  %20 = call i32 (ptr, ...) @printf(ptr noundef @.str.12)
  store i32 0, ptr %2, align 4
  store i32 1, ptr %13, align 4
  br label %136

21:                                               ; preds = %1
  %22 = load ptr, ptr %3, align 8, !tbaa !3
  %23 = call ptr @Abc_NtkPo(ptr noundef %22, i32 noundef 0)
  %24 = call ptr @Abc_ObjFanin0(ptr noundef %23)
  %25 = call ptr @Abc_NodeRecognizeMux(ptr noundef %24, ptr noundef %5, ptr noundef %6)
  store ptr %25, ptr %4, align 8, !tbaa !28
  %26 = load ptr, ptr %3, align 8, !tbaa !3
  %27 = call ptr @Abc_NtkPo(ptr noundef %26, i32 noundef 0)
  %28 = call i32 @Abc_ObjFaninC0(ptr noundef %27)
  %29 = icmp ne i32 %28, 0
  br i1 %29, label %30, label %35

30:                                               ; preds = %21
  %31 = load ptr, ptr %5, align 8, !tbaa !28
  %32 = call ptr @Abc_ObjNot(ptr noundef %31)
  store ptr %32, ptr %5, align 8, !tbaa !28
  %33 = load ptr, ptr %6, align 8, !tbaa !28
  %34 = call ptr @Abc_ObjNot(ptr noundef %33)
  store ptr %34, ptr %6, align 8, !tbaa !28
  br label %35

35:                                               ; preds = %30, %21
  %36 = load ptr, ptr %3, align 8, !tbaa !3
  %37 = call ptr @Abc_NtkCreatePo(ptr noundef %36)
  store ptr %37, ptr %8, align 8, !tbaa !28
  %38 = load ptr, ptr %8, align 8, !tbaa !28
  %39 = load ptr, ptr %4, align 8, !tbaa !28
  call void @Abc_ObjAddFanin(ptr noundef %38, ptr noundef %39)
  %40 = load ptr, ptr %8, align 8, !tbaa !28
  %41 = call ptr @Abc_ObjAssignName(ptr noundef %40, ptr noundef @.str.13, ptr noundef null)
  %42 = load ptr, ptr %3, align 8, !tbaa !3
  %43 = call ptr @Abc_NtkCreatePo(ptr noundef %42)
  store ptr %43, ptr %8, align 8, !tbaa !28
  %44 = load ptr, ptr %8, align 8, !tbaa !28
  %45 = load ptr, ptr %6, align 8, !tbaa !28
  call void @Abc_ObjAddFanin(ptr noundef %44, ptr noundef %45)
  %46 = load ptr, ptr %8, align 8, !tbaa !28
  %47 = call ptr @Abc_ObjAssignName(ptr noundef %46, ptr noundef @.str.14, ptr noundef null)
  %48 = load ptr, ptr %6, align 8, !tbaa !28
  %49 = call ptr @Abc_ObjRegular(ptr noundef %48)
  store ptr %49, ptr %6, align 8, !tbaa !28
  %50 = load ptr, ptr %3, align 8, !tbaa !3
  %51 = call ptr @Abc_NtkDfsNodes(ptr noundef %50, ptr noundef %4, i32 noundef 1)
  store ptr %51, ptr %9, align 8, !tbaa !31
  %52 = load ptr, ptr %3, align 8, !tbaa !3
  %53 = call ptr @Abc_NtkDfsNodes(ptr noundef %52, ptr noundef %6, i32 noundef 1)
  store ptr %53, ptr %10, align 8, !tbaa !31
  store i32 0, ptr %12, align 4, !tbaa !8
  br label %54

54:                                               ; preds = %71, %35
  %55 = load i32, ptr %12, align 4, !tbaa !8
  %56 = load ptr, ptr %9, align 8, !tbaa !31
  %57 = call i32 @Vec_PtrSize(ptr noundef %56)
  %58 = icmp slt i32 %55, %57
  br i1 %58, label %59, label %63

59:                                               ; preds = %54
  %60 = load ptr, ptr %9, align 8, !tbaa !31
  %61 = load i32, ptr %12, align 4, !tbaa !8
  %62 = call ptr @Vec_PtrEntry(ptr noundef %60, i32 noundef %61)
  store ptr %62, ptr %7, align 8, !tbaa !28
  br label %63

63:                                               ; preds = %59, %54
  %64 = phi i1 [ false, %54 ], [ true, %59 ]
  br i1 %64, label %65, label %74

65:                                               ; preds = %63
  %66 = load ptr, ptr %7, align 8, !tbaa !28
  %67 = getelementptr inbounds nuw %struct.Abc_Obj_t_, ptr %66, i32 0, i32 3
  %68 = load i32, ptr %67, align 4
  %69 = and i32 %68, -17
  %70 = or i32 %69, 16
  store i32 %70, ptr %67, align 4
  br label %71

71:                                               ; preds = %65
  %72 = load i32, ptr %12, align 4, !tbaa !8
  %73 = add nsw i32 %72, 1
  store i32 %73, ptr %12, align 4, !tbaa !8
  br label %54, !llvm.loop !77

74:                                               ; preds = %63
  store i32 0, ptr %11, align 4, !tbaa !8
  store i32 0, ptr %12, align 4, !tbaa !8
  br label %75

75:                                               ; preds = %94, %74
  %76 = load i32, ptr %12, align 4, !tbaa !8
  %77 = load ptr, ptr %10, align 8, !tbaa !31
  %78 = call i32 @Vec_PtrSize(ptr noundef %77)
  %79 = icmp slt i32 %76, %78
  br i1 %79, label %80, label %84

80:                                               ; preds = %75
  %81 = load ptr, ptr %10, align 8, !tbaa !31
  %82 = load i32, ptr %12, align 4, !tbaa !8
  %83 = call ptr @Vec_PtrEntry(ptr noundef %81, i32 noundef %82)
  store ptr %83, ptr %7, align 8, !tbaa !28
  br label %84

84:                                               ; preds = %80, %75
  %85 = phi i1 [ false, %75 ], [ true, %80 ]
  br i1 %85, label %86, label %97

86:                                               ; preds = %84
  %87 = load ptr, ptr %7, align 8, !tbaa !28
  %88 = getelementptr inbounds nuw %struct.Abc_Obj_t_, ptr %87, i32 0, i32 3
  %89 = load i32, ptr %88, align 4
  %90 = lshr i32 %89, 4
  %91 = and i32 %90, 1
  %92 = load i32, ptr %11, align 4, !tbaa !8
  %93 = add nsw i32 %92, %91
  store i32 %93, ptr %11, align 4, !tbaa !8
  br label %94

94:                                               ; preds = %86
  %95 = load i32, ptr %12, align 4, !tbaa !8
  %96 = add nsw i32 %95, 1
  store i32 %96, ptr %12, align 4, !tbaa !8
  br label %75, !llvm.loop !78

97:                                               ; preds = %84
  store i32 0, ptr %12, align 4, !tbaa !8
  br label %98

98:                                               ; preds = %115, %97
  %99 = load i32, ptr %12, align 4, !tbaa !8
  %100 = load ptr, ptr %9, align 8, !tbaa !31
  %101 = call i32 @Vec_PtrSize(ptr noundef %100)
  %102 = icmp slt i32 %99, %101
  br i1 %102, label %103, label %107

103:                                              ; preds = %98
  %104 = load ptr, ptr %9, align 8, !tbaa !31
  %105 = load i32, ptr %12, align 4, !tbaa !8
  %106 = call ptr @Vec_PtrEntry(ptr noundef %104, i32 noundef %105)
  store ptr %106, ptr %7, align 8, !tbaa !28
  br label %107

107:                                              ; preds = %103, %98
  %108 = phi i1 [ false, %98 ], [ true, %103 ]
  br i1 %108, label %109, label %118

109:                                              ; preds = %107
  %110 = load ptr, ptr %7, align 8, !tbaa !28
  %111 = getelementptr inbounds nuw %struct.Abc_Obj_t_, ptr %110, i32 0, i32 3
  %112 = load i32, ptr %111, align 4
  %113 = and i32 %112, -17
  %114 = or i32 %113, 0
  store i32 %114, ptr %111, align 4
  br label %115

115:                                              ; preds = %109
  %116 = load i32, ptr %12, align 4, !tbaa !8
  %117 = add nsw i32 %116, 1
  store i32 %117, ptr %12, align 4, !tbaa !8
  br label %98, !llvm.loop !79

118:                                              ; preds = %107
  %119 = load ptr, ptr %9, align 8, !tbaa !31
  %120 = getelementptr inbounds nuw %struct.Vec_Ptr_t_, ptr %119, i32 0, i32 1
  %121 = load i32, ptr %120, align 4, !tbaa !34
  %122 = load ptr, ptr %10, align 8, !tbaa !31
  %123 = getelementptr inbounds nuw %struct.Vec_Ptr_t_, ptr %122, i32 0, i32 1
  %124 = load i32, ptr %123, align 4, !tbaa !34
  %125 = load i32, ptr %11, align 4, !tbaa !8
  %126 = call i32 (ptr, ...) @printf(ptr noundef @.str.15, i32 noundef %121, i32 noundef %124, i32 noundef %125)
  %127 = load ptr, ptr %9, align 8, !tbaa !31
  call void @Vec_PtrFree(ptr noundef %127)
  %128 = load ptr, ptr %10, align 8, !tbaa !31
  call void @Vec_PtrFree(ptr noundef %128)
  %129 = load ptr, ptr %3, align 8, !tbaa !3
  call void @Abc_NtkOrderCisCos(ptr noundef %129)
  %130 = load ptr, ptr %3, align 8, !tbaa !3
  %131 = call i32 @Abc_NtkCheck(ptr noundef %130)
  %132 = icmp ne i32 %131, 0
  br i1 %132, label %135, label %133

133:                                              ; preds = %118
  %134 = call i32 (ptr, ...) @printf(ptr noundef @.str.16)
  br label %135

135:                                              ; preds = %133, %118
  store i32 1, ptr %2, align 4
  store i32 1, ptr %13, align 4
  br label %136

136:                                              ; preds = %135, %19
  call void @llvm.lifetime.end.p0(i64 4, ptr %12) #9
  call void @llvm.lifetime.end.p0(i64 4, ptr %11) #9
  call void @llvm.lifetime.end.p0(i64 8, ptr %10) #9
  call void @llvm.lifetime.end.p0(i64 8, ptr %9) #9
  call void @llvm.lifetime.end.p0(i64 8, ptr %8) #9
  call void @llvm.lifetime.end.p0(i64 8, ptr %7) #9
  call void @llvm.lifetime.end.p0(i64 8, ptr %6) #9
  call void @llvm.lifetime.end.p0(i64 8, ptr %5) #9
  call void @llvm.lifetime.end.p0(i64 8, ptr %4) #9
  %137 = load i32, ptr %2, align 4
  ret i32 %137
}