; Function Attrs: nounwind uwtable
define range(i32 0, 2) i32 @Abc_NtkDemiter(ptr noundef %0) local_unnamed_addr #0 {
  %2 = alloca ptr, align 8
  %3 = alloca ptr, align 8
  %4 = alloca ptr, align 8
  call void @llvm.lifetime.start.p0(i64 8, ptr nonnull %2) #16
  call void @llvm.lifetime.start.p0(i64 8, ptr nonnull %3) #16
  call void @llvm.lifetime.start.p0(i64 8, ptr nonnull %4) #16
  %5 = getelementptr i8, ptr %0, i64 48
  %.val53 = load ptr, ptr %5, align 8, !tbaa !43
  %6 = getelementptr i8, ptr %.val53, i64 8
  %.val53.val = load ptr, ptr %6, align 8, !tbaa !28
  %7 = load ptr, ptr %.val53.val, align 8, !tbaa !29
  %.val56 = load ptr, ptr %7, align 8, !tbaa !34
  %8 = getelementptr i8, ptr %7, i64 32
  %.val57 = load ptr, ptr %8, align 8, !tbaa !35
  %9 = getelementptr i8, ptr %.val56, i64 32
  %.val56.val = load ptr, ptr %9, align 8, !tbaa !25
  %.val57.val = load i32, ptr %.val57, align 4, !tbaa !36
  %10 = getelementptr i8, ptr %.val56.val, i64 8
  %.val56.val.val = load ptr, ptr %10, align 8, !tbaa !28
  %11 = sext i32 %.val57.val to i64
  %12 = getelementptr inbounds ptr, ptr %.val56.val.val, i64 %11
  %13 = load ptr, ptr %12, align 8, !tbaa !29
  %14 = tail call i32 @Abc_NodeIsExorType(ptr noundef %13) #16
  %.not = icmp eq i32 %14, 0
  br i1 %.not, label %15, label %16

15:                                               ; preds = %1
  %puts = tail call i32 @puts(ptr nonnull dereferenceable(1) @str.12)
  br label %91

16:                                               ; preds = %1
  %.val52 = load ptr, ptr %5, align 8, !tbaa !43
  %17 = getelementptr i8, ptr %.val52, i64 8
  %.val52.val = load ptr, ptr %17, align 8, !tbaa !28
  %18 = load ptr, ptr %.val52.val, align 8, !tbaa !29
  %.val54 = load ptr, ptr %18, align 8, !tbaa !34
  %19 = getelementptr i8, ptr %18, i64 32
  %.val55 = load ptr, ptr %19, align 8, !tbaa !35
  %20 = getelementptr i8, ptr %.val54, i64 32
  %.val54.val = load ptr, ptr %20, align 8, !tbaa !25
  %.val55.val = load i32, ptr %.val55, align 4, !tbaa !36
  %21 = getelementptr i8, ptr %.val54.val, i64 8
  %.val54.val.val = load ptr, ptr %21, align 8, !tbaa !28
  %22 = sext i32 %.val55.val to i64
  %23 = getelementptr inbounds ptr, ptr %.val54.val.val, i64 %22
  %24 = load ptr, ptr %23, align 8, !tbaa !29
  %25 = call ptr @Abc_NodeRecognizeMux(ptr noundef %24, ptr noundef nonnull %3, ptr noundef nonnull %4) #16
  store ptr %25, ptr %2, align 8, !tbaa !50
  %.val51 = load ptr, ptr %5, align 8, !tbaa !43
  %26 = getelementptr i8, ptr %.val51, i64 8
  %.val51.val = load ptr, ptr %26, align 8, !tbaa !28
  %27 = load ptr, ptr %.val51.val, align 8, !tbaa !29
  %28 = getelementptr i8, ptr %27, i64 20
  %.val58 = load i32, ptr %28, align 4
  %29 = and i32 %.val58, 1024
  %.not43 = icmp eq i32 %29, 0
  br i1 %.not43, label %39, label %30

30:                                               ; preds = %16
  %31 = load ptr, ptr %3, align 8, !tbaa !50
  %32 = ptrtoint ptr %31 to i64
  %33 = xor i64 %32, 1
  %34 = inttoptr i64 %33 to ptr
  store ptr %34, ptr %3, align 8, !tbaa !50
  %35 = load ptr, ptr %4, align 8, !tbaa !50
  %36 = ptrtoint ptr %35 to i64
  %37 = xor i64 %36, 1
  %38 = inttoptr i64 %37 to ptr
  store ptr %38, ptr %4, align 8, !tbaa !50
  br label %39

39:                                               ; preds = %30, %16
  %40 = call ptr @Abc_NtkCreateObj(ptr noundef nonnull %0, i32 noundef 3) #16
  call void @Abc_ObjAddFanin(ptr noundef %40, ptr noundef %25) #16
  %41 = call ptr @Abc_ObjAssignName(ptr noundef %40, ptr noundef nonnull @.str.13, ptr noundef null) #16
  %42 = call ptr @Abc_NtkCreateObj(ptr noundef nonnull %0, i32 noundef 3) #16
  %43 = load ptr, ptr %4, align 8, !tbaa !50
  call void @Abc_ObjAddFanin(ptr noundef %42, ptr noundef %43) #16
  %44 = call ptr @Abc_ObjAssignName(ptr noundef %42, ptr noundef nonnull @.str.14, ptr noundef null) #16
  %45 = load ptr, ptr %4, align 8, !tbaa !50
  %46 = ptrtoint ptr %45 to i64
  %47 = and i64 %46, -2
  %48 = inttoptr i64 %47 to ptr
  store ptr %48, ptr %4, align 8, !tbaa !50
  %49 = call ptr @Abc_NtkDfsNodes(ptr noundef nonnull %0, ptr noundef nonnull %2, i32 noundef 1) #16
  %50 = call ptr @Abc_NtkDfsNodes(ptr noundef nonnull %0, ptr noundef nonnull %4, i32 noundef 1) #16
  %51 = getelementptr i8, ptr %49, i64 4
  %.val4762 = load i32, ptr %51, align 4, !tbaa !26
  %52 = icmp sgt i32 %.val4762, 0
  br i1 %52, label %.lr.ph, label %.critedge.preheader

.lr.ph:                                           ; preds = %39
  %53 = getelementptr i8, ptr %49, i64 8
  br label %57

.critedge.preheader:                              ; preds = %57, %39
  %.val67 = phi i32 [ %.val4762, %39 ], [ %.val47, %57 ]
  %54 = getelementptr i8, ptr %50, i64 4
  %.val46 = load i32, ptr %54, align 4, !tbaa !26
  %55 = icmp sgt i32 %.val46, 0
  br i1 %55, label %.lr.ph66, label %.critedge2.preheader

.lr.ph66:                                         ; preds = %.critedge.preheader
  %56 = getelementptr i8, ptr %50, i64 8
  %.val49 = load ptr, ptr %56, align 8, !tbaa !28
  %wide.trip.count = zext nneg i32 %.val46 to i64
  br label %.critedge

57:                                               ; preds = %.lr.ph, %57
  %indvars.iv = phi i64 [ 0, %.lr.ph ], [ %indvars.iv.next, %57 ]
  %.val50 = load ptr, ptr %53, align 8, !tbaa !28
  %58 = getelementptr inbounds nuw ptr, ptr %.val50, i64 %indvars.iv
  %59 = load ptr, ptr %58, align 8, !tbaa !29
  %60 = getelementptr inbounds nuw i8, ptr %59, i64 20
  %61 = load i32, ptr %60, align 4
  %62 = or i32 %61, 16
  store i32 %62, ptr %60, align 4
  %indvars.iv.next = add nuw nsw i64 %indvars.iv, 1
  %.val47 = load i32, ptr %51, align 4, !tbaa !26
  %63 = sext i32 %.val47 to i64
  %64 = icmp slt i64 %indvars.iv.next, %63
  br i1 %64, label %57, label %.critedge.preheader, !llvm.loop !79

.critedge2.preheader:                             ; preds = %.critedge, %.critedge.preheader
  %.041.lcssa = phi i32 [ 0, %.critedge.preheader ], [ %73, %.critedge ]
  %65 = icmp sgt i32 %.val67, 0
  br i1 %65, label %.lr.ph69, label %.critedge4

.lr.ph69:                                         ; preds = %.critedge2.preheader
  %66 = getelementptr i8, ptr %49, i64 8
  br label %.critedge2

.critedge:                                        ; preds = %.lr.ph66, %.critedge
  %indvars.iv73 = phi i64 [ 0, %.lr.ph66 ], [ %indvars.iv.next74, %.critedge ]
  %.04164 = phi i32 [ 0, %.lr.ph66 ], [ %73, %.critedge ]
  %67 = getelementptr inbounds nuw ptr, ptr %.val49, i64 %indvars.iv73
  %68 = load ptr, ptr %67, align 8, !tbaa !29
  %69 = getelementptr inbounds nuw i8, ptr %68, i64 20
  %70 = load i32, ptr %69, align 4
  %71 = lshr i32 %70, 4
  %72 = and i32 %71, 1
  %73 = add nuw nsw i32 %72, %.04164
  %indvars.iv.next74 = add nuw nsw i64 %indvars.iv73, 1
  %exitcond.not = icmp eq i64 %indvars.iv.next74, %wide.trip.count
  br i1 %exitcond.not, label %.critedge2.preheader, label %.critedge, !llvm.loop !80

.critedge2:                                       ; preds = %.lr.ph69, %.critedge2
  %indvars.iv76 = phi i64 [ 0, %.lr.ph69 ], [ %indvars.iv.next77, %.critedge2 ]
  %.val48 = load ptr, ptr %66, align 8, !tbaa !28
  %74 = getelementptr inbounds nuw ptr, ptr %.val48, i64 %indvars.iv76
  %75 = load ptr, ptr %74, align 8, !tbaa !29
  %76 = getelementptr inbounds nuw i8, ptr %75, i64 20
  %77 = load i32, ptr %76, align 4
  %78 = and i32 %77, -17
  store i32 %78, ptr %76, align 4
  %indvars.iv.next77 = add nuw nsw i64 %indvars.iv76, 1
  %.val = load i32, ptr %51, align 4, !tbaa !26
  %79 = sext i32 %.val to i64
  %80 = icmp slt i64 %indvars.iv.next77, %79
  br i1 %80, label %.critedge2, label %.critedge4.loopexit, !llvm.loop !81

.critedge4.loopexit:                              ; preds = %.critedge2
  %.pre = load i32, ptr %54, align 4, !tbaa !26
  br label %.critedge4

.critedge4:                                       ; preds = %.critedge4.loopexit, %.critedge2.preheader
  %81 = phi i32 [ %.val46, %.critedge2.preheader ], [ %.pre, %.critedge4.loopexit ]
  %.val.lcssa = phi i32 [ %.val67, %.critedge2.preheader ], [ %.val, %.critedge4.loopexit ]
  %82 = call i32 (ptr, ...) @printf(ptr noundef nonnull dereferenceable(1) @.str.15, i32 noundef %.val.lcssa, i32 noundef %81, i32 noundef %.041.lcssa)
  %83 = getelementptr inbounds nuw i8, ptr %49, i64 8
  %84 = load ptr, ptr %83, align 8, !tbaa !28
  %.not.i = icmp eq ptr %84, null
  br i1 %.not.i, label %Vec_PtrFree.exit, label %85

85:                                               ; preds = %.critedge4
  call void @free(ptr noundef nonnull %84) #16
  br label %Vec_PtrFree.exit

Vec_PtrFree.exit:                                 ; preds = %.critedge4, %85
  call void @free(ptr noundef nonnull %49) #16
  %86 = getelementptr inbounds nuw i8, ptr %50, i64 8
  %87 = load ptr, ptr %86, align 8, !tbaa !28
  %.not.i59 = icmp eq ptr %87, null
  br i1 %.not.i59, label %Vec_PtrFree.exit60, label %88

88:                                               ; preds = %Vec_PtrFree.exit
  call void @free(ptr noundef nonnull %87) #16
  br label %Vec_PtrFree.exit60

Vec_PtrFree.exit60:                               ; preds = %Vec_PtrFree.exit, %88
  call void @free(ptr noundef nonnull %50) #16
  call void @Abc_NtkOrderCisCos(ptr noundef nonnull %0) #16
  %89 = call i32 @Abc_NtkCheck(ptr noundef nonnull %0) #16
  %.not44 = icmp eq i32 %89, 0
  br i1 %.not44, label %90, label %91

90:                                               ; preds = %Vec_PtrFree.exit60
  %puts45 = call i32 @puts(ptr nonnull dereferenceable(1) @str.13)
  br label %91

91:                                               ; preds = %Vec_PtrFree.exit60, %90, %15
  %.042 = phi i32 [ 0, %15 ], [ 1, %90 ], [ 1, %Vec_PtrFree.exit60 ]
  call void @llvm.lifetime.end.p0(i64 8, ptr nonnull %4) #16
  call void @llvm.lifetime.end.p0(i64 8, ptr nonnull %3) #16
  call void @llvm.lifetime.end.p0(i64 8, ptr nonnull %2) #16
  ret i32 %.042
}